Certificate:
    Data:
        Version: 3 (0x2)
        Serial Number:
            90:64:58:3b:90:12:b8:f6:fe:c0:c9:93:6b:1f:15:81
        Signature Algorithm: sha256WithRSAEncryption
        Issuer: CN=Home CA
        Validity
            Not Before: Nov 16 14:51:59 2020 GMT
            Not After : Nov 11 14:51:59 2040 GMT
        Subject: CN=air.8086.cf
        Subject Public Key Info:
            Public Key Algorithm: rsaEncryption
                RSA Public-Key: (2048 bit)
                Modulus:
                    00:ac:60:eb:4f:92:7b:f3:32:3b:27:d5:6f:58:9e:
                    29:2a:9b:31:fe:d7:9b:fc:8c:15:73:9a:ef:e8:fb:
                    01:db:d9:ca:be:d4:f0:51:53:48:24:19:8b:ab:f0:
                    a5:23:5f:e9:b0:ae:b0:37:3b:48:a1:26:58:81:bf:
                    8f:be:1a:38:f9:59:f6:1f:50:f9:81:98:07:31:45:
                    5c:0b:75:dc:21:42:c1:69:9c:19:20:89:82:15:1f:
                    d6:c6:ba:b7:1c:19:a6:79:9b:d6:c0:25:04:c1:56:
                    ce:60:85:6d:a1:c0:f9:2b:4b:bf:f1:92:46:b5:70:
                    f4:52:db:14:59:38:b2:0b:92:c9:ae:7d:02:e2:4c:
                    c5:ca:06:c8:fe:8a:55:c0:52:3c:9b:e4:1e:96:0a:
                    da:33:96:86:cd:bd:c8:4d:77:26:9b:69:eb:e8:7e:
                    b6:af:a3:ce:a5:32:01:fd:94:1a:31:34:44:41:7f:
                    f2:2d:3a:7b:d5:da:9c:4f:f6:14:de:1b:8d:33:66:
                    71:aa:26:6e:0e:4f:20:6e:ac:6d:fb:cb:2b:e2:43:
                    df:1a:7d:ef:75:17:ff:e5:a7:2c:a7:fc:90:df:a8:
                    73:b2:58:0d:01:86:00:f4:f7:56:7b:43:80:aa:43:
                    73:9a:bf:14:e7:c8:8e:e0:b0:ed:e1:3c:e1:8d:d0:
                    2a:5f
                Exponent: 65537 (0x10001)
        X509v3 extensions:
            X509v3 Basic Constraints: 
                CA:FALSE
            X509v3 Subject Key Identifier: 
                7A:09:F4:3B:E5:5A:0B:BA:49:8C:60:C6:4D:B7:B8:40:81:8A:18:D1
            X509v3 Authority Key Identifier: 
                keyid:62:7E:3A:91:2F:27:76:36:59:96:BE:42:F0:52:0F:7E:9F:D3:9F:CC
                DirName:/CN=Home CA
                serial:51:7E:A0:C7:4B:27:9D:2C:20:AE:2E:47:9A:41:6C:85:7B:6E:F6:45

            X509v3 Extended Key Usage: 
                TLS Web Server Authentication
            X509v3 Key Usage: 
                Digital Signature, Key Encipherment
            X509v3 Subject Alternative Name: 
                DNS:air.8086.cf
    Signature Algorithm: sha256WithRSAEncryption
         ab:08:26:3d:12:d3:02:6a:12:53:8e:e5:a2:3c:7f:4c:c1:d7:
         21:ff:f0:c0:16:82:f4:98:2a:6a:2d:9a:f7:4d:41:02:ff:eb:
         c8:34:74:e8:ff:30:76:f4:80:f3:d0:57:2c:3f:ac:1f:ea:c5:
         9f:81:b8:dc:ec:7f:47:bd:7d:d8:9e:d9:dc:89:59:eb:c4:24:
         c9:8c:0d:36:39:85:ac:7c:ad:8a:de:25:b7:9f:89:f6:c7:66:
         64:38:50:19:e2:72:cd:e1:81:24:9a:bc:27:26:92:db:1b:9c:
         e6:ce:1e:59:cc:b3:7c:82:e8:98:ca:ee:2a:50:91:f3:1f:8f:
         c1:45:58:37:c0:aa:7c:6e:34:c2:93:f8:a2:f9:02:cd:d6:03:
         42:21:fe:82:e4:2d:c8:85:df:42:10:03:4d:d9:61:3b:70:24:
         5b:40:70:ec:f6:ae:c9:dd:a9:db:e8:ea:61:7e:d2:5b:79:bf:
         24:dc:e8:1b:8a:81:db:4d:d2:0c:9d:f9:4a:f6:0a:77:19:a9:
         47:4e:6c:87:d5:cc:22:66:6a:ed:72:c6:80:34:ea:ca:c1:18:
         da:e9:a9:12:63:6c:37:5e:0f:15:cc:4b:bb:a8:72:aa:5c:d7:
         31:aa:05:dc:c4:a9:41:f8:8b:49:a7:c7:ac:5d:19:0a:e0:7d:
         d1:76:97:c5
-----BEGIN CERTIFICATE-----
MIIDajCCAlKgAwIBAgIRAJBkWDuQErj2/sDJk2sfFYEwDQYJKoZIhvcNAQELBQAw
EjEQMA4GA1UEAwwHSG9tZSBDQTAeFw0yMDExMTYxNDUxNTlaFw00MDExMTExNDUx
NTlaMBYxFDASBgNVBAMMC2Fpci44MDg2LmNmMIIBIjANBgkqhkiG9w0BAQEFAAOC
AQ8AMIIBCgKCAQEArGDrT5J78zI7J9VvWJ4pKpsx/teb/IwVc5rv6PsB29nKvtTw
UVNIJBmLq/ClI1/psK6wNztIoSZYgb+Pvho4+Vn2H1D5gZgHMUVcC3XcIULBaZwZ
IImCFR/Wxrq3HBmmeZvWwCUEwVbOYIVtocD5K0u/8ZJGtXD0UtsUWTiyC5LJrn0C
4kzFygbI/opVwFI8m+QelgraM5aGzb3ITXcmm2nr6H62r6POpTIB/ZQaMTREQX/y
LTp71dqcT/YU3huNM2ZxqiZuDk8gbqxt+8sr4kPfGn3vdRf/5acsp/yQ36hzslgN
AYYA9PdWe0OAqkNzmr8U58iO4LDt4TzhjdAqXwIDAQABo4G2MIGzMAkGA1UdEwQC
MAAwHQYDVR0OBBYEFHoJ9DvlWgu6SYxgxk23uECBihjRME0GA1UdIwRGMESAFGJ+
OpEvJ3Y2WZa+QvBSD36f05/MoRakFDASMRAwDgYDVQQDDAdIb21lIENBghRRfqDH
SyedLCCuLkeaQWyFe272RTATBgNVHSUEDDAKBggrBgEFBQcDATALBgNVHQ8EBAMC
BaAwFgYDVR0RBA8wDYILYWlyLjgwODYuY2YwDQYJKoZIhvcNAQELBQADggEBAKsI
Jj0S0wJqElOO5aI8f0zB1yH/8MAWgvSYKmotmvdNQQL/68g0dOj/MHb0gPPQVyw/
rB/qxZ+BuNzsf0e9fdie2dyJWevEJMmMDTY5hax8rYreJbefifbHZmQ4UBnics3h
gSSavCcmktsbnObOHlnMs3yC6JjK7ipQkfMfj8FFWDfAqnxuNMKT+KL5As3WA0Ih
/oLkLciF30IQA03ZYTtwJFtAcOz2rsndqdvo6mF+0lt5vyTc6BuKgdtN0gyd+Ur2
CncZqUdObIfVzCJmau1yxoA06srBGNrpqRJjbDdeDxXMS7uocqpc1zGqBdzEqUH4
i0mnx6xdGQrgfdF2l8U=
-----END CERTIFICATE-----
